target datalayout = "e-m:e-p270:32:32-p271:32:32-p272:64:64-i64:64-i128:128-f80:128-n8:16:32:64-S128"
target triple = "x86_64-pc-linux-gnu"

%struct.test_fixture = type { ptr, ptr, ptr, ptr, ptr, ptr, i32, ptr, ptr, ptr, i32, i32, i32 }

@ir_unprotected = internal global ptr null, align 8
@.str.14 = private unnamed_addr constant [35 x i8] c"../openssl/test/cmp_protect_test.c\00", align 1
@rand_data = internal global [16 x i8] zeroinitializer, align 16
@.str.47 = private unnamed_addr constant [58 x i8] c"test_MSG_protect_with_msg_sig_alg_protection_plus_rsa_key\00", align 1
@.str.75 = private unnamed_addr constant [48 x i8] c"fixture->msg = OSSL_CMP_MSG_dup(ir_unprotected)\00", align 1
@.str.76 = private unnamed_addr constant [46 x i8] c"SET_OPT_UNPROTECTED_SEND(fixture->cmp_ctx, 0)\00", align 1
@.str.77 = private unnamed_addr constant [68 x i8] c"OSSL_CMP_CTX_set1_referenceValue(fixture->cmp_ctx, rand_data, size)\00", align 1
@.str.78 = private unnamed_addr constant [72 x i8] c"OSSL_CMP_CTX_set1_secretValue(fixture->cmp_ctx, rand_data + size, size)\00", align 1
@.str.79 = private unnamed_addr constant [18 x i8] c"fixture->expected\00", align 1
@.str.80 = private unnamed_addr constant [53 x i8] c"ossl_cmp_msg_protect(fixture->cmp_ctx, fixture->msg)\00", align 1

; Function Attrs: inlinehint nounwind uwtable
define internal ptr @ossl_check_X509_sk_type(ptr noundef %0) #3 {
  %2 = alloca ptr, align 8
  store ptr %0, ptr %2, align 8, !tbaa !54
  %3 = load ptr, ptr %2, align 8, !tbaa !54
  ret ptr %3
}

; Function Attrs: nounwind uwtable
define internal i32 @execute_MSG_protect_test(ptr noundef %0) #0 {
  %2 = alloca ptr, align 8
  store ptr %0, ptr %2, align 8, !tbaa !19
  %3 = load ptr, ptr %2, align 8, !tbaa !19
  %4 = getelementptr inbounds nuw %struct.test_fixture, ptr %3, i32 0, i32 12
  %5 = load i32, ptr %4, align 8, !tbaa !43
  %6 = load ptr, ptr %2, align 8, !tbaa !19
  %7 = getelementptr inbounds nuw %struct.test_fixture, ptr %6, i32 0, i32 1
  %8 = load ptr, ptr %7, align 8, !tbaa !40
  %9 = load ptr, ptr %2, align 8, !tbaa !19
  %10 = getelementptr inbounds nuw %struct.test_fixture, ptr %9, i32 0, i32 2
  %11 = load ptr, ptr %10, align 8, !tbaa !23
  %12 = call i32 @ossl_cmp_msg_protect(ptr noundef %8, ptr noundef %11)
  %13 = call i32 @test_int_eq(ptr noundef @.str.14, i32 noundef 193, ptr noundef @.str.79, ptr noundef @.str.80, i32 noundef %5, i32 noundef %12)
  ret i32 %13
}

; Function Attrs: nounwind uwtable
define internal void @tear_down(ptr noundef %0) #0 {
  %2 = alloca ptr, align 8
  store ptr %0, ptr %2, align 8, !tbaa !19
  %3 = load ptr, ptr %2, align 8, !tbaa !19
  %4 = icmp ne ptr %3, null
  br i1 %4, label %5, label %27

5:                                                ; preds = %1
  %6 = load ptr, ptr %2, align 8, !tbaa !19
  %7 = getelementptr inbounds nuw %struct.test_fixture, ptr %6, i32 0, i32 1
  %8 = load ptr, ptr %7, align 8, !tbaa !40
  call void @OSSL_CMP_CTX_free(ptr noundef %8)
  %9 = load ptr, ptr %2, align 8, !tbaa !19
  %10 = getelementptr inbounds nuw %struct.test_fixture, ptr %9, i32 0, i32 2
  %11 = load ptr, ptr %10, align 8, !tbaa !23
  call void @OSSL_CMP_MSG_free(ptr noundef %11)
  %12 = load ptr, ptr %2, align 8, !tbaa !19
  %13 = getelementptr inbounds nuw %struct.test_fixture, ptr %12, i32 0, i32 3
  %14 = load ptr, ptr %13, align 8, !tbaa !51
  call void @OSSL_CMP_PKISI_free(ptr noundef %14)
  %15 = load ptr, ptr %2, align 8, !tbaa !19
  %16 = getelementptr inbounds nuw %struct.test_fixture, ptr %15, i32 0, i32 5
  %17 = load ptr, ptr %16, align 8, !tbaa !52
  call void @CRYPTO_free(ptr noundef %17, ptr noundef @.str.14, i32 noundef 46)
  %18 = load ptr, ptr %2, align 8, !tbaa !19
  %19 = getelementptr inbounds nuw %struct.test_fixture, ptr %18, i32 0, i32 8
  %20 = load ptr, ptr %19, align 8, !tbaa !47
  %21 = call ptr @ossl_check_X509_sk_type(ptr noundef %20)
  call void @OPENSSL_sk_free(ptr noundef %21)
  %22 = load ptr, ptr %2, align 8, !tbaa !19
  %23 = getelementptr inbounds nuw %struct.test_fixture, ptr %22, i32 0, i32 9
  %24 = load ptr, ptr %23, align 8, !tbaa !48
  %25 = call ptr @ossl_check_X509_sk_type(ptr noundef %24)
  call void @OPENSSL_sk_free(ptr noundef %25)
  %26 = load ptr, ptr %2, align 8, !tbaa !19
  call void @CRYPTO_free(ptr noundef %26, ptr noundef @.str.14, i32 noundef 50)
  br label %27

27:                                               ; preds = %5, %1
  ret void
}

; Function Attrs: nounwind uwtable
define internal i32 @test_MSG_protect_with_msg_sig_alg_protection_plus_rsa_key() #0 {
  %1 = alloca i32, align 4
  %2 = alloca i64, align 8
  %3 = alloca ptr, align 8
  %4 = alloca i32, align 4
  %5 = alloca i32, align 4
  call void @llvm.lifetime.start.p0(i64 8, ptr %2) #5
  store i64 8, ptr %2, align 8, !tbaa !41
  call void @llvm.lifetime.start.p0(i64 8, ptr %3) #5
  %6 = call ptr @set_up(ptr noundef @.str.47)
  store ptr %6, ptr %3, align 8, !tbaa !19
  call void @llvm.lifetime.start.p0(i64 4, ptr %4) #5
  store i32 0, ptr %4, align 4, !tbaa !21
  %7 = load ptr, ptr %3, align 8, !tbaa !19
  %8 = icmp eq ptr %7, null
  br i1 %8, label %9, label %10

9:                                                ; preds = %0
  store i32 0, ptr %1, align 4
  store i32 1, ptr %5, align 4
  br label %57

10:                                               ; preds = %0
  %11 = load ptr, ptr %3, align 8, !tbaa !19
  %12 = getelementptr inbounds nuw %struct.test_fixture, ptr %11, i32 0, i32 12
  store i32 1, ptr %12, align 8, !tbaa !43
  %13 = load ptr, ptr @ir_unprotected, align 8, !tbaa !9
  %14 = call ptr @OSSL_CMP_MSG_dup(ptr noundef %13)
  %15 = load ptr, ptr %3, align 8, !tbaa !19
  %16 = getelementptr inbounds nuw %struct.test_fixture, ptr %15, i32 0, i32 2
  store ptr %14, ptr %16, align 8, !tbaa !23
  %17 = call i32 @test_ptr(ptr noundef @.str.14, i32 noundef 219, ptr noundef @.str.75, ptr noundef %14)
  %18 = icmp ne i32 %17, 0
  br i1 %18, label %19, label %46

19:                                               ; preds = %10
  %20 = load ptr, ptr %3, align 8, !tbaa !19
  %21 = getelementptr inbounds nuw %struct.test_fixture, ptr %20, i32 0, i32 1
  %22 = load ptr, ptr %21, align 8, !tbaa !40
  %23 = call i32 @OSSL_CMP_CTX_set_option(ptr noundef %22, i32 noundef 30, i32 noundef 0)
  %24 = icmp ne i32 %23, 0
  %25 = zext i1 %24 to i32
  %26 = call i32 @test_true(ptr noundef @.str.14, i32 noundef 220, ptr noundef @.str.76, i32 noundef %25)
  %27 = icmp ne i32 %26, 0
  br i1 %27, label %28, label %46

28:                                               ; preds = %19
  %29 = load ptr, ptr %3, align 8, !tbaa !19
  %30 = getelementptr inbounds nuw %struct.test_fixture, ptr %29, i32 0, i32 1
  %31 = load ptr, ptr %30, align 8, !tbaa !40
  %32 = call i32 @OSSL_CMP_CTX_set1_referenceValue(ptr noundef %31, ptr noundef @rand_data, i32 noundef 8)
  %33 = icmp ne i32 %32, 0
  %34 = zext i1 %33 to i32
  %35 = call i32 @test_true(ptr noundef @.str.14, i32 noundef 226, ptr noundef @.str.77, i32 noundef %34)
  %36 = icmp ne i32 %35, 0
  br i1 %36, label %37, label %46

37:                                               ; preds = %28
  %38 = load ptr, ptr %3, align 8, !tbaa !19
  %39 = getelementptr inbounds nuw %struct.test_fixture, ptr %38, i32 0, i32 1
  %40 = load ptr, ptr %39, align 8, !tbaa !40
  %41 = call i32 @OSSL_CMP_CTX_set1_secretValue(ptr noundef %40, ptr noundef getelementptr inbounds nuw (i8, ptr @rand_data, i64 8), i32 noundef 8)
  %42 = icmp ne i32 %41, 0
  %43 = zext i1 %42 to i32
  %44 = call i32 @test_true(ptr noundef @.str.14, i32 noundef 229, ptr noundef @.str.78, i32 noundef %43)
  %45 = icmp ne i32 %44, 0
  br i1 %45, label %48, label %46

46:                                               ; preds = %37, %28, %19, %10
  %47 = load ptr, ptr %3, align 8, !tbaa !19
  call void @tear_down(ptr noundef %47)
  store ptr null, ptr %3, align 8, !tbaa !19
  br label %48

48:                                               ; preds = %46, %37
  %49 = load ptr, ptr %3, align 8, !tbaa !19
  %50 = icmp ne ptr %49, null
  br i1 %50, label %51, label %55

51:                                               ; preds = %48
  %52 = load ptr, ptr %3, align 8, !tbaa !19
  %53 = call i32 @execute_MSG_protect_test(ptr noundef %52)
  store i32 %53, ptr %4, align 4, !tbaa !21
  %54 = load ptr, ptr %3, align 8, !tbaa !19
  call void @tear_down(ptr noundef %54)
  br label %55

55:                                               ; preds = %51, %48
  %56 = load i32, ptr %4, align 4, !tbaa !21
  store i32 %56, ptr %1, align 4
  store i32 1, ptr %5, align 4
  br label %57

57:                                               ; preds = %55, %9
  call void @llvm.lifetime.end.p0(i64 4, ptr %4) #5
  call void @llvm.lifetime.end.p0(i64 8, ptr %3) #5
  call void @llvm.lifetime.end.p0(i64 8, ptr %2) #5
  %58 = load i32, ptr %1, align 4
  ret i32 %58
}