; Function Attrs: nounwind uwtable
define internal i32 @test_MSG_protect_with_msg_sig_alg_protection_plus_rsa_key() #0 {
  %1 = tail call fastcc ptr @set_up(ptr noundef nonnull @.str.47)
  %2 = icmp eq ptr %1, null
  br i1 %2, label %43, label %3

3:                                                ; preds = %0
  %4 = getelementptr inbounds nuw i8, ptr %1, i64 88
  store i32 1, ptr %4, align 8, !tbaa !43
  %5 = load ptr, ptr @ir_unprotected, align 8, !tbaa !9
  %6 = tail call ptr @OSSL_CMP_MSG_dup(ptr noundef %5) #5
  %7 = getelementptr inbounds nuw i8, ptr %1, i64 16
  store ptr %6, ptr %7, align 8, !tbaa !19
  %8 = tail call i32 @test_ptr(ptr noundef nonnull @.str.14, i32 noundef 219, ptr noundef nonnull @.str.75, ptr noundef %6) #5
  %.not = icmp eq i32 %8, 0
  br i1 %.not, label %.thread, label %9

9:                                                ; preds = %3
  %10 = getelementptr inbounds nuw i8, ptr %1, i64 8
  %11 = load ptr, ptr %10, align 8, !tbaa !36
  %12 = tail call i32 @OSSL_CMP_CTX_set_option(ptr noundef %11, i32 noundef 30, i32 noundef 0) #5
  %13 = icmp ne i32 %12, 0
  %14 = zext i1 %13 to i32
  %15 = tail call i32 @test_true(ptr noundef nonnull @.str.14, i32 noundef 220, ptr noundef nonnull @.str.76, i32 noundef %14) #5
  %.not14 = icmp eq i32 %15, 0
  br i1 %.not14, label %.thread, label %16

16:                                               ; preds = %9
  %17 = load ptr, ptr %10, align 8, !tbaa !36
  %18 = tail call i32 @OSSL_CMP_CTX_set1_referenceValue(ptr noundef %17, ptr noundef nonnull @rand_data, i32 noundef 8) #5
  %19 = icmp ne i32 %18, 0
  %20 = zext i1 %19 to i32
  %21 = tail call i32 @test_true(ptr noundef nonnull @.str.14, i32 noundef 226, ptr noundef nonnull @.str.77, i32 noundef %20) #5
  %.not15 = icmp eq i32 %21, 0
  br i1 %.not15, label %.thread, label %22

22:                                               ; preds = %16
  %23 = load ptr, ptr %10, align 8, !tbaa !36
  %24 = tail call i32 @OSSL_CMP_CTX_set1_secretValue(ptr noundef %23, ptr noundef nonnull getelementptr inbounds nuw (i8, ptr @rand_data, i64 8), i32 noundef 8) #5
  %25 = icmp ne i32 %24, 0
  %26 = zext i1 %25 to i32
  %27 = tail call i32 @test_true(ptr noundef nonnull @.str.14, i32 noundef 229, ptr noundef nonnull @.str.78, i32 noundef %26) #5
  %.not16 = icmp eq i32 %27, 0
  br i1 %.not16, label %.thread, label %tear_down.exit19

.thread:                                          ; preds = %3, %9, %16, %22
  %28 = getelementptr inbounds nuw i8, ptr %1, i64 8
  br label %.sink.split

tear_down.exit19:                                 ; preds = %22
  %29 = load i32, ptr %4, align 8, !tbaa !43
  %30 = load ptr, ptr %10, align 8, !tbaa !36
  %31 = load ptr, ptr %7, align 8, !tbaa !19
  %32 = tail call i32 @ossl_cmp_msg_protect(ptr noundef %30, ptr noundef %31) #5
  %33 = tail call i32 @test_int_eq(ptr noundef nonnull @.str.14, i32 noundef 193, ptr noundef nonnull @.str.79, ptr noundef nonnull @.str.80, i32 noundef %29, i32 noundef %32) #5
  br label %.sink.split

.sink.split:                                      ; preds = %tear_down.exit19, %.thread
  %.sink.in = phi ptr [ %28, %.thread ], [ %10, %tear_down.exit19 ]
  %.012.ph = phi i32 [ 0, %.thread ], [ %33, %tear_down.exit19 ]
  %.sink = load ptr, ptr %.sink.in, align 8, !tbaa !36
  tail call void @OSSL_CMP_CTX_free(ptr noundef %.sink) #5
  %34 = load ptr, ptr %7, align 8, !tbaa !19
  tail call void @OSSL_CMP_MSG_free(ptr noundef %34) #5
  %35 = getelementptr inbounds nuw i8, ptr %1, i64 24
  %36 = load ptr, ptr %35, align 8, !tbaa !37
  tail call void @OSSL_CMP_PKISI_free(ptr noundef %36) #5
  %37 = getelementptr inbounds nuw i8, ptr %1, i64 40
  %38 = load ptr, ptr %37, align 8, !tbaa !38
  tail call void @CRYPTO_free(ptr noundef %38, ptr noundef nonnull @.str.14, i32 noundef 46) #5
  %39 = getelementptr inbounds nuw i8, ptr %1, i64 64
  %40 = load ptr, ptr %39, align 8, !tbaa !39
  tail call void @OPENSSL_sk_free(ptr noundef %40) #5
  %41 = getelementptr inbounds nuw i8, ptr %1, i64 72
  %42 = load ptr, ptr %41, align 8, !tbaa !40
  tail call void @OPENSSL_sk_free(ptr noundef %42) #5
  tail call void @CRYPTO_free(ptr noundef nonnull %1, ptr noundef nonnull @.str.14, i32 noundef 50) #5
  br label %43

43:                                               ; preds = %.sink.split, %0
  %.012 = phi i32 [ 0, %0 ], [ %.012.ph, %.sink.split ]
  ret i32 %.012
}